; Function Attrs: nounwind uwtable
define ptr @Aig_Or(ptr noundef %0, ptr noundef %1, ptr noundef %2) local_unnamed_addr #0 {
  %4 = ptrtoint ptr %1 to i64
  %5 = xor i64 %4, 1
  %6 = inttoptr i64 %5 to ptr
  %7 = ptrtoint ptr %2 to i64
  %8 = xor i64 %7, 1
  %9 = inttoptr i64 %8 to ptr
  %10 = tail call ptr @Aig_And(ptr noundef %0, ptr noundef %6, ptr noundef %9)
  %11 = ptrtoint ptr %10 to i64
  %12 = xor i64 %11, 1
  %13 = inttoptr i64 %12 to ptr
  ret ptr %13
}